target datalayout = "e-m:e-p270:32:32-p271:32:32-p272:64:64-i64:64-i128:128-f80:128-n8:16:32:64-S128"
target triple = "x86_64-pc-linux-gnu"

%struct.rb_data_type_struct = type { ptr, %struct.anon.4, ptr, ptr, i64 }
%struct.anon.4 = type { ptr, ptr, ptr, ptr, [1 x ptr] }
%struct.RBasic = type { i64, i64 }
%struct.RData = type { %struct.RBasic, ptr, ptr, ptr }
%struct.rb_addrinfo_t = type { i64, i64, i32, i32, i32, i32, %union.union_sockaddr }
%union.union_sockaddr = type { %struct.sockaddr_storage, [1920 x i8] }
%struct.sockaddr_storage = type { i16, [118 x i8], i64 }

@rb_eArgError = external global i64, align 8
@rb_cAddrinfo = external global i64, align 8
@addrinfo_type = internal constant %struct.rb_data_type_struct { ptr @.str.102, %struct.anon.4 { ptr @addrinfo_mark, ptr inttoptr (i64 -1 to ptr), ptr @addrinfo_memsize, ptr null, [1 x ptr] zeroinitializer }, ptr null, ptr null, i64 0 }, align 8
@.str.100 = private unnamed_addr constant [24 x i8] c"sockaddr string too big\00", align 1

; Function Attrs: alwaysinline nounwind
define internal ptr @memcpy.inline(ptr noalias nonnull %0, ptr noalias nonnull %1, i64 %2) #12 {
  %4 = alloca ptr, align 8
  %5 = alloca ptr, align 8
  %6 = alloca i64, align 8
  store ptr %0, ptr %4, align 8, !tbaa !26
  store ptr %1, ptr %5, align 8, !tbaa !26
  store i64 %2, ptr %6, align 8, !tbaa !31
  %7 = load ptr, ptr %4, align 8, !tbaa !26
  %8 = load ptr, ptr %5, align 8, !tbaa !26
  %9 = load i64, ptr %6, align 8, !tbaa !31
  %10 = load ptr, ptr %4, align 8, !tbaa !26
  %11 = call i64 @llvm.objectsize.i64.p0(ptr %10, i1 false, i1 true, i1 false)
  %12 = call ptr @__memcpy_chk(ptr noundef %7, ptr noundef %8, i64 noundef %9, i64 noundef %11) #24
  ret ptr %12
}

; Function Attrs: inlinehint nounwind sspstrong memory(argmem: readwrite, inaccessiblemem: readwrite) uwtable
define internal nonnull ptr @ruby_nonempty_memcpy(ptr noundef nonnull %0, ptr noundef %1, i64 noundef %2) #4 {
  %4 = alloca ptr, align 8
  %5 = alloca ptr, align 8
  %6 = alloca ptr, align 8
  %7 = alloca i64, align 8
  store ptr %0, ptr %5, align 8, !tbaa !26
  store ptr %1, ptr %6, align 8, !tbaa !26
  store i64 %2, ptr %7, align 8, !tbaa !31
  %8 = load i64, ptr %7, align 8, !tbaa !31
  %9 = icmp ne i64 %8, 0
  br i1 %9, label %10, label %15

10:                                               ; preds = %3
  %11 = load ptr, ptr %5, align 8, !tbaa !26
  %12 = load ptr, ptr %6, align 8, !tbaa !26
  %13 = load i64, ptr %7, align 8, !tbaa !31
  %14 = call ptr @memcpy.inline(ptr noundef %11, ptr noundef %12, i64 noundef %13) #24
  store ptr %14, ptr %4, align 8
  br label %17

15:                                               ; preds = %3
  %16 = load ptr, ptr %5, align 8, !tbaa !26
  store ptr %16, ptr %4, align 8
  br label %17

17:                                               ; preds = %15, %10
  %18 = load ptr, ptr %4, align 8
  ret ptr %18
}

; Function Attrs: nounwind sspstrong uwtable
define internal void @init_addrinfo(ptr noundef %0, ptr noundef %1, i32 noundef %2, i32 noundef %3, i32 noundef %4, i32 noundef %5, i64 noundef %6, i64 noundef %7) #0 {
  %9 = alloca ptr, align 8
  %10 = alloca ptr, align 8
  %11 = alloca i32, align 4
  %12 = alloca i32, align 4
  %13 = alloca i32, align 4
  %14 = alloca i32, align 4
  %15 = alloca i64, align 8
  %16 = alloca i64, align 8
  store ptr %0, ptr %9, align 8, !tbaa !26
  store ptr %1, ptr %10, align 8, !tbaa !29
  store i32 %2, ptr %11, align 4, !tbaa !27
  store i32 %3, ptr %12, align 4, !tbaa !27
  store i32 %4, ptr %13, align 4, !tbaa !27
  store i32 %5, ptr %14, align 4, !tbaa !27
  store i64 %6, ptr %15, align 8, !tbaa !31
  store i64 %7, ptr %16, align 8, !tbaa !31
  %17 = load i32, ptr %11, align 4, !tbaa !27
  %18 = icmp ult i32 2048, %17
  br i1 %18, label %19, label %21

19:                                               ; preds = %8
  %20 = load i64, ptr @rb_eArgError, align 8, !tbaa !31
  call void (i64, ptr, ...) @rb_raise(i64 noundef %20, ptr noundef @.str.100) #27
  unreachable

21:                                               ; preds = %8
  %22 = load ptr, ptr %9, align 8, !tbaa !26
  %23 = getelementptr inbounds nuw %struct.rb_addrinfo_t, ptr %22, i32 0, i32 6
  %24 = load ptr, ptr %10, align 8, !tbaa !29
  %25 = load i32, ptr %11, align 4, !tbaa !27
  %26 = zext i32 %25 to i64
  %27 = call nonnull ptr @ruby_nonempty_memcpy(ptr noundef %23, ptr noundef %24, i64 noundef %26) #25
  %28 = load i32, ptr %11, align 4, !tbaa !27
  %29 = load ptr, ptr %9, align 8, !tbaa !26
  %30 = getelementptr inbounds nuw %struct.rb_addrinfo_t, ptr %29, i32 0, i32 5
  store i32 %28, ptr %30, align 4, !tbaa !126
  %31 = load i32, ptr %12, align 4, !tbaa !27
  %32 = load ptr, ptr %9, align 8, !tbaa !26
  %33 = getelementptr inbounds nuw %struct.rb_addrinfo_t, ptr %32, i32 0, i32 2
  store i32 %31, ptr %33, align 8, !tbaa !127
  %34 = load i32, ptr %13, align 4, !tbaa !27
  %35 = load ptr, ptr %9, align 8, !tbaa !26
  %36 = getelementptr inbounds nuw %struct.rb_addrinfo_t, ptr %35, i32 0, i32 3
  store i32 %34, ptr %36, align 4, !tbaa !128
  %37 = load i32, ptr %14, align 4, !tbaa !27
  %38 = load ptr, ptr %9, align 8, !tbaa !26
  %39 = getelementptr inbounds nuw %struct.rb_addrinfo_t, ptr %38, i32 0, i32 4
  store i32 %37, ptr %39, align 8, !tbaa !129
  %40 = load i64, ptr %15, align 8, !tbaa !31
  %41 = load ptr, ptr %9, align 8, !tbaa !26
  %42 = getelementptr inbounds nuw %struct.rb_addrinfo_t, ptr %41, i32 0, i32 1
  store i64 %40, ptr %42, align 8, !tbaa !125
  %43 = load i64, ptr %16, align 8, !tbaa !31
  %44 = load ptr, ptr %9, align 8, !tbaa !26
  %45 = getelementptr inbounds nuw %struct.rb_addrinfo_t, ptr %44, i32 0, i32 0
  store i64 %43, ptr %45, align 8, !tbaa !123
  ret void
}

; Function Attrs: nounwind sspstrong uwtable
define internal ptr @alloc_addrinfo() #0 {
  %1 = alloca ptr, align 8
  call void @llvm.lifetime.start.p0(i64 8, ptr %1) #24
  %2 = call noalias nonnull ptr @ruby_xcalloc(i64 noundef 1, i64 noundef 2080) #32
  store ptr %2, ptr %1, align 8, !tbaa !26
  %3 = load ptr, ptr %1, align 8, !tbaa !26
  %4 = getelementptr inbounds nuw %struct.rb_addrinfo_t, ptr %3, i32 0, i32 0
  store i64 4, ptr %4, align 8, !tbaa !123
  %5 = load ptr, ptr %1, align 8, !tbaa !26
  %6 = getelementptr inbounds nuw %struct.rb_addrinfo_t, ptr %5, i32 0, i32 1
  store i64 4, ptr %6, align 8, !tbaa !125
  %7 = load ptr, ptr %1, align 8, !tbaa !26
  call void @llvm.lifetime.end.p0(i64 8, ptr %1) #24
  ret ptr %7
}

; Function Attrs: nounwind sspstrong uwtable
define internal i64 @addrinfo_s_allocate(i64 noundef %0) #0 {
  %2 = alloca i64, align 8
  store i64 %0, ptr %2, align 8, !tbaa !31
  %3 = load i64, ptr %2, align 8, !tbaa !31
  %4 = call i64 @rb_data_typed_object_wrap(i64 noundef %3, ptr noundef null, ptr noundef @addrinfo_type)
  ret i64 %4
}

; Function Attrs: nounwind sspstrong uwtable
define i64 @rsock_addrinfo_new(ptr noundef %0, i32 noundef %1, i32 noundef %2, i32 noundef %3, i32 noundef %4, i64 noundef %5, i64 noundef %6) #0 {
  %8 = alloca ptr, align 8
  %9 = alloca i32, align 4
  %10 = alloca i32, align 4
  %11 = alloca i32, align 4
  %12 = alloca i32, align 4
  %13 = alloca i64, align 8
  %14 = alloca i64, align 8
  %15 = alloca i64, align 8
  %16 = alloca ptr, align 8
  store ptr %0, ptr %8, align 8, !tbaa !29
  store i32 %1, ptr %9, align 4, !tbaa !27
  store i32 %2, ptr %10, align 4, !tbaa !27
  store i32 %3, ptr %11, align 4, !tbaa !27
  store i32 %4, ptr %12, align 4, !tbaa !27
  store i64 %5, ptr %13, align 8, !tbaa !31
  store i64 %6, ptr %14, align 8, !tbaa !31
  call void @llvm.lifetime.start.p0(i64 8, ptr %15) #24
  call void @llvm.lifetime.start.p0(i64 8, ptr %16) #24
  %17 = load i64, ptr @rb_cAddrinfo, align 8, !tbaa !31
  %18 = call i64 @addrinfo_s_allocate(i64 noundef %17)
  store i64 %18, ptr %15, align 8, !tbaa !31
  %19 = call ptr @alloc_addrinfo()
  store ptr %19, ptr %16, align 8, !tbaa !26
  %20 = load i64, ptr %15, align 8, !tbaa !31
  %21 = inttoptr i64 %20 to ptr
  %22 = getelementptr inbounds nuw %struct.RData, ptr %21, i32 0, i32 3
  store ptr %19, ptr %22, align 8, !tbaa !121
  %23 = load ptr, ptr %16, align 8, !tbaa !26
  %24 = load ptr, ptr %8, align 8, !tbaa !29
  %25 = load i32, ptr %9, align 4, !tbaa !27
  %26 = load i32, ptr %10, align 4, !tbaa !27
  %27 = load i32, ptr %11, align 4, !tbaa !27
  %28 = load i32, ptr %12, align 4, !tbaa !27
  %29 = load i64, ptr %13, align 8, !tbaa !31
  %30 = load i64, ptr %14, align 8, !tbaa !31
  call void @init_addrinfo(ptr noundef %23, ptr noundef %24, i32 noundef %25, i32 noundef %26, i32 noundef %27, i32 noundef %28, i64 noundef %29, i64 noundef %30)
  %31 = load i64, ptr %15, align 8, !tbaa !31
  call void @llvm.lifetime.end.p0(i64 8, ptr %16) #24
  call void @llvm.lifetime.end.p0(i64 8, ptr %15) #24
  ret i64 %31
}