; Function Attrs: nounwind sspstrong uwtable
define i64 @rsock_addrinfo_new(ptr noundef readonly captures(none) %0, i32 noundef %1, i32 noundef %2, i32 noundef %3, i32 noundef %4, i64 noundef %5, i64 noundef %6) local_unnamed_addr #0 {
  %8 = load i64, ptr @rb_cAddrinfo, align 8, !tbaa !35
  %9 = tail call i64 @rb_data_typed_object_wrap(i64 noundef %8, ptr noundef null, ptr noundef nonnull @addrinfo_type) #21
  %10 = tail call noalias noundef nonnull dereferenceable(2080) ptr @ruby_xcalloc(i64 noundef 1, i64 noundef 2080) #25
  store i64 4, ptr %10, align 8, !tbaa !109
  %11 = getelementptr inbounds nuw i8, ptr %10, i64 8
  store i64 4, ptr %11, align 8, !tbaa !111
  %12 = inttoptr i64 %9 to ptr
  %13 = getelementptr inbounds nuw i8, ptr %12, i64 32
  store ptr %10, ptr %13, align 8, !tbaa !112
  %14 = icmp ugt i32 %1, 2048
  br i1 %14, label %15, label %17

15:                                               ; preds = %7
  %16 = load i64, ptr @rb_eArgError, align 8, !tbaa !35
  tail call void (i64, ptr, ...) @rb_raise(i64 noundef %16, ptr noundef nonnull @.str.100) #23
  unreachable

17:                                               ; preds = %7
  %.not.i.i = icmp eq i32 %1, 0
  br i1 %.not.i.i, label %init_addrinfo.exit, label %18

18:                                               ; preds = %17
  %19 = zext nneg i32 %1 to i64
  %20 = getelementptr inbounds nuw i8, ptr %10, i64 32
  %21 = tail call ptr @__memcpy_chk(ptr noundef nonnull %20, ptr noundef nonnull readonly %0, i64 noundef range(i64 1, 0) %19, i64 noundef 2048) #21, !alias.scope !114
  br label %init_addrinfo.exit

init_addrinfo.exit:                               ; preds = %17, %18
  %22 = getelementptr inbounds nuw i8, ptr %10, i64 28
  store i32 %1, ptr %22, align 4, !tbaa !118
  %23 = getelementptr inbounds nuw i8, ptr %10, i64 16
  store i32 %2, ptr %23, align 8, !tbaa !119
  %24 = getelementptr inbounds nuw i8, ptr %10, i64 20
  store i32 %3, ptr %24, align 4, !tbaa !120
  %25 = getelementptr inbounds nuw i8, ptr %10, i64 24
  store i32 %4, ptr %25, align 8, !tbaa !121
  store i64 %5, ptr %11, align 8, !tbaa !111
  store i64 %6, ptr %10, align 8, !tbaa !109
  ret i64 %9
}